; Function Attrs: mustprogress uwtable
define dso_local void @_ZN3net19QuicStreamSequencer19CloseStreamAtOffsetEm(ptr noundef nonnull align 8 dereferenceable(169) %this, i64 noundef %offset) local_unnamed_addr #0 align 2 {
entry:
  %close_offset_ = getelementptr inbounds i8, ptr %this, i64 136
  %0 = load i64, ptr %close_offset_, align 8
  %cmp.not = icmp eq i64 %0, -1
  %cmp3.not = icmp eq i64 %0, %offset
  %or.cond = or i1 %cmp.not, %cmp3.not
  br i1 %or.cond, label %if.end, label %if.then

if.then:                                          ; preds = %entry
  %stream_ = getelementptr inbounds i8, ptr %this, i64 8
  %1 = load ptr, ptr %stream_, align 8
  %vtable = load ptr, ptr %1, align 8
  %vfn = getelementptr inbounds i8, ptr %vtable, i64 64
  %2 = load ptr, ptr %vfn, align 8
  tail call void %2(ptr noundef nonnull align 8 dereferenceable(377) %1, i32 noundef 2)
  br label %return

if.end:                                           ; preds = %entry
  store i64 %offset, ptr %close_offset_, align 8
  %blocked_.i = getelementptr inbounds i8, ptr %this, i64 144
  %3 = load i8, ptr %blocked_.i, align 8
  %4 = and i8 %3, 1
  %tobool.not.i = icmp eq i8 %4, 0
  br i1 %tobool.not.i, label %lor.lhs.false.i, label %return

lor.lhs.false.i:                                  ; preds = %if.end
  %buffered_frames_.i.i = getelementptr inbounds i8, ptr %this, i64 16
  %call.i.i = tail call noundef i64 @_ZNK3net25QuicStreamSequencerBuffer13BytesConsumedEv(ptr noundef nonnull align 8 dereferenceable(120) %buffered_frames_.i.i)
  %5 = load i64, ptr %close_offset_, align 8
  %cmp.i.not.i = icmp ult i64 %call.i.i, %5
  br i1 %cmp.i.not.i, label %return, label %if.end.i

if.end.i:                                         ; preds = %lor.lhs.false.i
  %ignore_read_data_.i = getelementptr inbounds i8, ptr %this, i64 168
  %6 = load i8, ptr %ignore_read_data_.i, align 8
  %7 = and i8 %6, 1
  %tobool2.not.i = icmp eq i8 %7, 0
  %stream_4.i = getelementptr inbounds i8, ptr %this, i64 8
  %8 = load ptr, ptr %stream_4.i, align 8
  br i1 %tobool2.not.i, label %if.else.i, label %if.then3.i

if.then3.i:                                       ; preds = %if.end.i
  tail call void @_ZN3net18ReliableQuicStream9OnFinReadEv(ptr noundef nonnull align 8 dereferenceable(377) %8)
  br label %if.end5.i

if.else.i:                                        ; preds = %if.end.i
  %vtable.i = load ptr, ptr %8, align 8
  %vfn.i = getelementptr inbounds i8, ptr %vtable.i, i64 56
  %9 = load ptr, ptr %vfn.i, align 8
  tail call void %9(ptr noundef nonnull align 8 dereferenceable(377) %8)
  br label %if.end5.i

if.end5.i:                                        ; preds = %if.else.i, %if.then3.i
  tail call void @_ZN3net25QuicStreamSequencerBuffer5ClearEv(ptr noundef nonnull align 8 dereferenceable(120) %buffered_frames_.i.i)
  br label %return

return:                                           ; preds = %if.end5.i, %lor.lhs.false.i, %if.end, %if.then
  ret void
}